target datalayout = "e-m:e-p270:32:32-p271:32:32-p272:64:64-i64:64-i128:128-f80:128-n8:16:32:64-S128"
target triple = "x86_64-pc-linux-gnu"

; Function Attrs: nounwind sspstrong uwtable
define internal i64 @thread_register_and_unregister_callback(i64 noundef %0) #0 {
  %2 = alloca i64, align 8
  %3 = alloca i64, align 8
  %4 = alloca [5 x ptr], align 16
  %5 = alloca i32, align 4
  %6 = alloca i32, align 4
  store i64 %0, ptr %3, align 8, !tbaa !6
  call void @llvm.lifetime.start.p0(i64 40, ptr %4) #11
  call void @llvm.lifetime.start.p0(i64 4, ptr %5) #11
  store i32 0, ptr %5, align 4, !tbaa !13
  br label %7

7:                                                ; preds = %16, %1
  %8 = load i32, ptr %5, align 4, !tbaa !13
  %9 = icmp slt i32 %8, 5
  br i1 %9, label %11, label %10

10:                                               ; preds = %7
  call void @llvm.lifetime.end.p0(i64 4, ptr %5) #11
  br label %19

11:                                               ; preds = %7
  %12 = call ptr @rb_internal_thread_add_event_hook(ptr noundef @ex_callback, i32 noundef 2, ptr noundef null)
  %13 = load i32, ptr %5, align 4, !tbaa !13
  %14 = sext i32 %13 to i64
  %15 = getelementptr inbounds [5 x ptr], ptr %4, i64 0, i64 %14
  store ptr %12, ptr %15, align 8, !tbaa !10
  br label %16

16:                                               ; preds = %11
  %17 = load i32, ptr %5, align 4, !tbaa !13
  %18 = add nsw i32 %17, 1
  store i32 %18, ptr %5, align 4, !tbaa !13
  br label %7, !llvm.loop !20

19:                                               ; preds = %10
  %20 = getelementptr inbounds [5 x ptr], ptr %4, i64 0, i64 4
  %21 = load ptr, ptr %20, align 16, !tbaa !10
  %22 = call zeroext i1 @rb_internal_thread_remove_event_hook(ptr noundef %21)
  br i1 %22, label %24, label %23

23:                                               ; preds = %19
  store i64 0, ptr %2, align 8
  store i32 1, ptr %6, align 4
  br label %45

24:                                               ; preds = %19
  %25 = getelementptr inbounds [5 x ptr], ptr %4, i64 0, i64 0
  %26 = load ptr, ptr %25, align 16, !tbaa !10
  %27 = call zeroext i1 @rb_internal_thread_remove_event_hook(ptr noundef %26)
  br i1 %27, label %29, label %28

28:                                               ; preds = %24
  store i64 0, ptr %2, align 8
  store i32 1, ptr %6, align 4
  br label %45

29:                                               ; preds = %24
  %30 = getelementptr inbounds [5 x ptr], ptr %4, i64 0, i64 3
  %31 = load ptr, ptr %30, align 8, !tbaa !10
  %32 = call zeroext i1 @rb_internal_thread_remove_event_hook(ptr noundef %31)
  br i1 %32, label %34, label %33

33:                                               ; preds = %29
  store i64 0, ptr %2, align 8
  store i32 1, ptr %6, align 4
  br label %45

34:                                               ; preds = %29
  %35 = getelementptr inbounds [5 x ptr], ptr %4, i64 0, i64 2
  %36 = load ptr, ptr %35, align 16, !tbaa !10
  %37 = call zeroext i1 @rb_internal_thread_remove_event_hook(ptr noundef %36)
  br i1 %37, label %39, label %38

38:                                               ; preds = %34
  store i64 0, ptr %2, align 8
  store i32 1, ptr %6, align 4
  br label %45

39:                                               ; preds = %34
  %40 = getelementptr inbounds [5 x ptr], ptr %4, i64 0, i64 1
  %41 = load ptr, ptr %40, align 8, !tbaa !10
  %42 = call zeroext i1 @rb_internal_thread_remove_event_hook(ptr noundef %41)
  br i1 %42, label %44, label %43

43:                                               ; preds = %39
  store i64 0, ptr %2, align 8
  store i32 1, ptr %6, align 4
  br label %45

44:                                               ; preds = %39
  store i64 20, ptr %2, align 8
  store i32 1, ptr %6, align 4
  br label %45

45:                                               ; preds = %44, %43, %38, %33, %28, %23
  call void @llvm.lifetime.end.p0(i64 40, ptr %4) #11
  %46 = load i64, ptr %2, align 8
  ret i64 %46
}