; Function Attrs: nounwind sspstrong uwtable
define internal range(i64 0, 21) i64 @thread_register_and_unregister_callback(i64 %0) #0 {
  %2 = alloca [5 x ptr], align 16
  call void @llvm.lifetime.start.p0(i64 40, ptr nonnull %2) #5
  br label %7

3:                                                ; preds = %7
  %4 = getelementptr inbounds nuw i8, ptr %2, i64 32
  %5 = load ptr, ptr %4, align 16, !tbaa !10
  %6 = tail call zeroext i1 @rb_internal_thread_remove_event_hook(ptr noundef %5) #5
  br i1 %6, label %10, label %25

7:                                                ; preds = %1, %7
  %indvars.iv = phi i64 [ 0, %1 ], [ %indvars.iv.next, %7 ]
  %8 = tail call ptr @rb_internal_thread_add_event_hook(ptr noundef nonnull @ex_callback, i32 noundef 2, ptr noundef null) #5
  %9 = getelementptr inbounds nuw [5 x ptr], ptr %2, i64 0, i64 %indvars.iv
  store ptr %8, ptr %9, align 8, !tbaa !10
  %indvars.iv.next = add nuw nsw i64 %indvars.iv, 1
  %exitcond.not = icmp eq i64 %indvars.iv.next, 5
  br i1 %exitcond.not, label %3, label %7, !llvm.loop !21

10:                                               ; preds = %3
  %11 = load ptr, ptr %2, align 16, !tbaa !10
  %12 = tail call zeroext i1 @rb_internal_thread_remove_event_hook(ptr noundef %11) #5
  br i1 %12, label %13, label %25

13:                                               ; preds = %10
  %14 = getelementptr inbounds nuw i8, ptr %2, i64 24
  %15 = load ptr, ptr %14, align 8, !tbaa !10
  %16 = tail call zeroext i1 @rb_internal_thread_remove_event_hook(ptr noundef %15) #5
  br i1 %16, label %17, label %25

17:                                               ; preds = %13
  %18 = getelementptr inbounds nuw i8, ptr %2, i64 16
  %19 = load ptr, ptr %18, align 16, !tbaa !10
  %20 = tail call zeroext i1 @rb_internal_thread_remove_event_hook(ptr noundef %19) #5
  br i1 %20, label %21, label %25

21:                                               ; preds = %17
  %22 = getelementptr inbounds nuw i8, ptr %2, i64 8
  %23 = load ptr, ptr %22, align 8, !tbaa !10
  %24 = tail call zeroext i1 @rb_internal_thread_remove_event_hook(ptr noundef %23) #5
  %. = select i1 %24, i64 20, i64 0
  br label %25

25:                                               ; preds = %21, %17, %13, %10, %3
  %.04 = phi i64 [ 0, %3 ], [ 0, %10 ], [ 0, %13 ], [ 0, %17 ], [ %., %21 ]
  call void @llvm.lifetime.end.p0(i64 40, ptr nonnull %2) #5
  ret i64 %.04
}